target datalayout = "e-m:e-p270:32:32-p271:32:32-p272:64:64-i64:64-i128:128-f80:128-n8:16:32:64-S128"
target triple = "x86_64-pc-linux-gnu"

%struct.DdManager = type { %struct.DdNode, ptr, ptr, ptr, ptr, ptr, ptr, ptr, i32, i32, double, double, double, i32, i32, i32, i32, i32, i32, ptr, ptr, %struct.DdSubtable, i32, i32, i32, i32, i32, i32, i32, double, i32, i32, i32, ptr, i64, double, i32, ptr, ptr, ptr, ptr, ptr, ptr, ptr, i32, ptr, ptr, ptr, ptr, ptr, ptr, i32, i32, i32, double, i32, i32, i32, i32, double, double, i32, i32, i32, i32, i32, i32, i32, i32, i32, ptr, ptr, i32, i32, i32, i32, i32, i32, ptr, ptr, ptr, ptr, ptr, ptr, ptr, ptr, i32, i64, i64, i64, i32, i64, i64, double, double, double, double, double, double, i32, ptr, ptr, i64 }
%struct.DdNode = type { i32, i32, ptr, %union.anon, i64 }
%union.anon = type { %struct.DdChildren }
%struct.DdChildren = type { ptr, ptr }
%struct.DdSubtable = type { ptr, i32, i32, i32, i32, i32, i32, i32, i32, i32, i32, i32 }

; Function Attrs: nounwind uwtable
define internal double @bddAnnotateMintermCount(ptr noundef %0, ptr noundef %1, double noundef %2, ptr noundef %3) #0 {
  %5 = alloca double, align 8
  %6 = alloca ptr, align 8
  %7 = alloca ptr, align 8
  %8 = alloca double, align 8
  %9 = alloca ptr, align 8
  %10 = alloca ptr, align 8
  %11 = alloca ptr, align 8
  %12 = alloca ptr, align 8
  %13 = alloca double, align 8
  %14 = alloca double, align 8
  %15 = alloca double, align 8
  %16 = alloca ptr, align 8
  %17 = alloca ptr, align 8
  %18 = alloca i32, align 4
  store ptr %0, ptr %6, align 8, !tbaa !3
  store ptr %1, ptr %7, align 8, !tbaa !8
  store double %2, ptr %8, align 8, !tbaa !14
  store ptr %3, ptr %9, align 8, !tbaa !40
  call void @llvm.lifetime.start.p0(i64 8, ptr %10) #5
  call void @llvm.lifetime.start.p0(i64 8, ptr %11) #5
  call void @llvm.lifetime.start.p0(i64 8, ptr %12) #5
  call void @llvm.lifetime.start.p0(i64 8, ptr %13) #5
  call void @llvm.lifetime.start.p0(i64 8, ptr %14) #5
  call void @llvm.lifetime.start.p0(i64 8, ptr %15) #5
  call void @llvm.lifetime.start.p0(i64 8, ptr %16) #5
  call void @llvm.lifetime.start.p0(i64 8, ptr %17) #5
  %19 = load ptr, ptr %7, align 8, !tbaa !8
  %20 = ptrtoint ptr %19 to i64
  %21 = and i64 %20, -2
  %22 = inttoptr i64 %21 to ptr
  store ptr %22, ptr %10, align 8, !tbaa !8
  %23 = load ptr, ptr %10, align 8, !tbaa !8
  %24 = getelementptr inbounds nuw %struct.DdNode, ptr %23, i32 0, i32 0
  %25 = load i32, ptr %24, align 8, !tbaa !36
  %26 = icmp eq i32 %25, 2147483647
  br i1 %26, label %27, label %36

27:                                               ; preds = %4
  %28 = load ptr, ptr %7, align 8, !tbaa !8
  %29 = load ptr, ptr %6, align 8, !tbaa !3
  %30 = getelementptr inbounds nuw %struct.DdManager, ptr %29, i32 0, i32 1
  %31 = load ptr, ptr %30, align 8, !tbaa !30
  %32 = icmp eq ptr %28, %31
  br i1 %32, label %33, label %35

33:                                               ; preds = %27
  %34 = load double, ptr %8, align 8, !tbaa !14
  store double %34, ptr %5, align 8
  store i32 1, ptr %18, align 4
  br label %112

35:                                               ; preds = %27
  store double 0.000000e+00, ptr %5, align 8
  store i32 1, ptr %18, align 4
  br label %112

36:                                               ; preds = %4
  %37 = load ptr, ptr %9, align 8, !tbaa !40
  %38 = load ptr, ptr %7, align 8, !tbaa !8
  %39 = call i32 @st__lookup(ptr noundef %37, ptr noundef %38, ptr noundef %17)
  %40 = icmp ne i32 %39, 0
  br i1 %40, label %41, label %44

41:                                               ; preds = %36
  %42 = load ptr, ptr %17, align 8, !tbaa !48
  %43 = load double, ptr %42, align 8, !tbaa !14
  store double %43, ptr %5, align 8
  store i32 1, ptr %18, align 4
  br label %112

44:                                               ; preds = %36
  %45 = load ptr, ptr %10, align 8, !tbaa !8
  %46 = getelementptr inbounds nuw %struct.DdNode, ptr %45, i32 0, i32 3
  %47 = getelementptr inbounds nuw %struct.DdChildren, ptr %46, i32 0, i32 0
  %48 = load ptr, ptr %47, align 8, !tbaa !50
  store ptr %48, ptr %11, align 8, !tbaa !8
  %49 = load ptr, ptr %10, align 8, !tbaa !8
  %50 = getelementptr inbounds nuw %struct.DdNode, ptr %49, i32 0, i32 3
  %51 = getelementptr inbounds nuw %struct.DdChildren, ptr %50, i32 0, i32 1
  %52 = load ptr, ptr %51, align 8, !tbaa !50
  store ptr %52, ptr %12, align 8, !tbaa !8
  %53 = load ptr, ptr %10, align 8, !tbaa !8
  %54 = load ptr, ptr %7, align 8, !tbaa !8
  %55 = icmp ne ptr %53, %54
  br i1 %55, label %56, label %65

56:                                               ; preds = %44
  %57 = load ptr, ptr %11, align 8, !tbaa !8
  %58 = ptrtoint ptr %57 to i64
  %59 = xor i64 %58, 1
  %60 = inttoptr i64 %59 to ptr
  store ptr %60, ptr %11, align 8, !tbaa !8
  %61 = load ptr, ptr %12, align 8, !tbaa !8
  %62 = ptrtoint ptr %61 to i64
  %63 = xor i64 %62, 1
  %64 = inttoptr i64 %63 to ptr
  store ptr %64, ptr %12, align 8, !tbaa !8
  br label %65

65:                                               ; preds = %56, %44
  %66 = load ptr, ptr %6, align 8, !tbaa !3
  %67 = load ptr, ptr %11, align 8, !tbaa !8
  %68 = load double, ptr %8, align 8, !tbaa !14
  %69 = load ptr, ptr %9, align 8, !tbaa !40
  %70 = call double @bddAnnotateMintermCount(ptr noundef %66, ptr noundef %67, double noundef %68, ptr noundef %69)
  %71 = fdiv double %70, 2.000000e+00
  store double %71, ptr %13, align 8, !tbaa !14
  %72 = load double, ptr %13, align 8, !tbaa !14
  %73 = fcmp oeq double %72, -1.000000e+00
  br i1 %73, label %74, label %75

74:                                               ; preds = %65
  store double -1.000000e+00, ptr %5, align 8
  store i32 1, ptr %18, align 4
  br label %112

75:                                               ; preds = %65
  %76 = load ptr, ptr %6, align 8, !tbaa !3
  %77 = load ptr, ptr %12, align 8, !tbaa !8
  %78 = load double, ptr %8, align 8, !tbaa !14
  %79 = load ptr, ptr %9, align 8, !tbaa !40
  %80 = call double @bddAnnotateMintermCount(ptr noundef %76, ptr noundef %77, double noundef %78, ptr noundef %79)
  %81 = fdiv double %80, 2.000000e+00
  store double %81, ptr %14, align 8, !tbaa !14
  %82 = load double, ptr %14, align 8, !tbaa !14
  %83 = fcmp oeq double %82, -1.000000e+00
  br i1 %83, label %84, label %85

84:                                               ; preds = %75
  store double -1.000000e+00, ptr %5, align 8
  store i32 1, ptr %18, align 4
  br label %112

85:                                               ; preds = %75
  %86 = load double, ptr %13, align 8, !tbaa !14
  %87 = load double, ptr %14, align 8, !tbaa !14
  %88 = fadd double %86, %87
  store double %88, ptr %15, align 8, !tbaa !14
  %89 = call noalias ptr @malloc(i64 noundef 8) #6
  store ptr %89, ptr %16, align 8, !tbaa !48
  %90 = load ptr, ptr %16, align 8, !tbaa !48
  %91 = icmp eq ptr %90, null
  br i1 %91, label %92, label %95

92:                                               ; preds = %85
  %93 = load ptr, ptr %6, align 8, !tbaa !3
  %94 = getelementptr inbounds nuw %struct.DdManager, ptr %93, i32 0, i32 86
  store i32 1, ptr %94, align 8, !tbaa !33
  store double -1.000000e+00, ptr %5, align 8
  store i32 1, ptr %18, align 4
  br label %112

95:                                               ; preds = %85
  %96 = load double, ptr %15, align 8, !tbaa !14
  %97 = load ptr, ptr %16, align 8, !tbaa !48
  store double %96, ptr %97, align 8, !tbaa !14
  %98 = load ptr, ptr %9, align 8, !tbaa !40
  %99 = load ptr, ptr %7, align 8, !tbaa !8
  %100 = load ptr, ptr %16, align 8, !tbaa !48
  %101 = call i32 @st__insert(ptr noundef %98, ptr noundef %99, ptr noundef %100)
  %102 = icmp eq i32 %101, -10000
  br i1 %102, label %103, label %110

103:                                              ; preds = %95
  %104 = load ptr, ptr %16, align 8, !tbaa !48
  %105 = icmp ne ptr %104, null
  br i1 %105, label %106, label %108

106:                                              ; preds = %103
  %107 = load ptr, ptr %16, align 8, !tbaa !48
  call void @free(ptr noundef %107) #5
  store ptr null, ptr %16, align 8, !tbaa !48
  br label %109

108:                                              ; preds = %103
  br label %109

109:                                              ; preds = %108, %106
  store double -1.000000e+00, ptr %5, align 8
  store i32 1, ptr %18, align 4
  br label %112

110:                                              ; preds = %95
  %111 = load double, ptr %15, align 8, !tbaa !14
  store double %111, ptr %5, align 8
  store i32 1, ptr %18, align 4
  br label %112

112:                                              ; preds = %110, %109, %92, %84, %74, %41, %35, %33
  call void @llvm.lifetime.end.p0(i64 8, ptr %17) #5
  call void @llvm.lifetime.end.p0(i64 8, ptr %16) #5
  call void @llvm.lifetime.end.p0(i64 8, ptr %15) #5
  call void @llvm.lifetime.end.p0(i64 8, ptr %14) #5
  call void @llvm.lifetime.end.p0(i64 8, ptr %13) #5
  call void @llvm.lifetime.end.p0(i64 8, ptr %12) #5
  call void @llvm.lifetime.end.p0(i64 8, ptr %11) #5
  call void @llvm.lifetime.end.p0(i64 8, ptr %10) #5
  %113 = load double, ptr %5, align 8
  ret double %113
}