; Function Attrs: nounwind uwtable
define internal fastcc double @bddAnnotateMintermCount(ptr noundef %0, ptr noundef %1, double noundef %2, ptr noundef nonnull %3) unnamed_addr #0 {
  %5 = alloca ptr, align 8
  call void @llvm.lifetime.start.p0(i64 8, ptr nonnull %5) #8
  %6 = ptrtoint ptr %1 to i64
  %7 = and i64 %6, -2
  %8 = inttoptr i64 %7 to ptr
  %9 = load i32, ptr %8, align 8, !tbaa !30
  %10 = icmp eq i32 %9, 2147483647
  br i1 %10, label %11, label %15

11:                                               ; preds = %4
  %12 = getelementptr inbounds nuw i8, ptr %0, i64 40
  %13 = load ptr, ptr %12, align 8, !tbaa !24
  %14 = icmp eq ptr %1, %13
  %. = select i1 %14, double %2, double 0.000000e+00
  br label %48

15:                                               ; preds = %4
  %16 = call i32 @st__lookup(ptr noundef nonnull %3, ptr noundef %1, ptr noundef nonnull %5) #8
  %.not = icmp eq i32 %16, 0
  br i1 %.not, label %20, label %17

17:                                               ; preds = %15
  %18 = load ptr, ptr %5, align 8, !tbaa !40
  %19 = load double, ptr %18, align 8, !tbaa !42
  br label %48

20:                                               ; preds = %15
  %21 = getelementptr inbounds nuw i8, ptr %8, i64 16
  %22 = load ptr, ptr %21, align 8, !tbaa !43
  %23 = getelementptr inbounds nuw i8, ptr %8, i64 24
  %24 = load ptr, ptr %23, align 8, !tbaa !43
  %.not41 = icmp eq ptr %1, %8
  %25 = ptrtoint ptr %22 to i64
  %26 = xor i64 %25, 1
  %27 = inttoptr i64 %26 to ptr
  %.036 = select i1 %.not41, ptr %22, ptr %27
  %28 = call fastcc double @bddAnnotateMintermCount(ptr noundef %0, ptr noundef %.036, double noundef %2, ptr noundef %3)
  %29 = fmul double %28, 5.000000e-01
  %30 = fcmp oeq double %29, -1.000000e+00
  br i1 %30, label %48, label %31

31:                                               ; preds = %20
  %32 = ptrtoint ptr %24 to i64
  %33 = xor i64 %32, 1
  %34 = inttoptr i64 %33 to ptr
  %.037 = select i1 %.not41, ptr %24, ptr %34
  %35 = call fastcc double @bddAnnotateMintermCount(ptr noundef %0, ptr noundef %.037, double noundef %2, ptr noundef %3)
  %36 = fmul double %35, 5.000000e-01
  %37 = fcmp oeq double %36, -1.000000e+00
  br i1 %37, label %48, label %38

38:                                               ; preds = %31
  %39 = call noalias dereferenceable_or_null(8) ptr @malloc(i64 noundef 8) #9
  %40 = icmp eq ptr %39, null
  br i1 %40, label %41, label %43

41:                                               ; preds = %38
  %42 = getelementptr inbounds nuw i8, ptr %0, i64 624
  store i32 1, ptr %42, align 8, !tbaa !34
  br label %48

43:                                               ; preds = %38
  %44 = fadd double %29, %36
  store double %44, ptr %39, align 8, !tbaa !42
  %45 = call i32 @st__insert(ptr noundef nonnull %3, ptr noundef %1, ptr noundef nonnull %39) #8
  %46 = icmp eq i32 %45, -10000
  br i1 %46, label %47, label %48

47:                                               ; preds = %43
  call void @free(ptr noundef nonnull %39) #8
  br label %48

48:                                               ; preds = %43, %31, %20, %11, %47, %41, %17
  %.0 = phi double [ %19, %17 ], [ -1.000000e+00, %41 ], [ -1.000000e+00, %47 ], [ %., %11 ], [ -1.000000e+00, %20 ], [ -1.000000e+00, %31 ], [ %44, %43 ]
  call void @llvm.lifetime.end.p0(i64 8, ptr nonnull %5) #8
  ret double %.0
}